target datalayout = "e-m:e-p270:32:32-p271:32:32-p272:64:64-i64:64-i128:128-f80:128-n8:16:32:64-S128"
target triple = "x86_64-pc-linux-gnu"

%struct.ID3v2ExtraMetaGEOB = type { i32, ptr, ptr, ptr, ptr }

; Function Attrs: nounwind uwtable
define internal void @free_geobtag(ptr noundef %0) #0 {
  %2 = alloca ptr, align 8
  %3 = alloca ptr, align 8
  store ptr %0, ptr %2, align 8, !tbaa !108
  call void @llvm.lifetime.start.p0(i64 8, ptr %3) #10
  %4 = load ptr, ptr %2, align 8, !tbaa !108
  store ptr %4, ptr %3, align 8, !tbaa !115
  %5 = load ptr, ptr %3, align 8, !tbaa !115
  %6 = getelementptr inbounds nuw %struct.ID3v2ExtraMetaGEOB, ptr %5, i32 0, i32 1
  call void @av_freep(ptr noundef %6)
  %7 = load ptr, ptr %3, align 8, !tbaa !115
  %8 = getelementptr inbounds nuw %struct.ID3v2ExtraMetaGEOB, ptr %7, i32 0, i32 2
  call void @av_freep(ptr noundef %8)
  %9 = load ptr, ptr %3, align 8, !tbaa !115
  %10 = getelementptr inbounds nuw %struct.ID3v2ExtraMetaGEOB, ptr %9, i32 0, i32 3
  call void @av_freep(ptr noundef %10)
  %11 = load ptr, ptr %3, align 8, !tbaa !115
  %12 = getelementptr inbounds nuw %struct.ID3v2ExtraMetaGEOB, ptr %11, i32 0, i32 4
  call void @av_freep(ptr noundef %12)
  call void @llvm.lifetime.end.p0(i64 8, ptr %3) #10
  ret void
}