; Function Attrs: nounwind uwtable
define internal void @free_geobtag(ptr noundef %0) #2 {
  %2 = getelementptr inbounds nuw i8, ptr %0, i64 8
  tail call void @av_freep(ptr noundef nonnull %2) #9
  %3 = getelementptr inbounds nuw i8, ptr %0, i64 16
  tail call void @av_freep(ptr noundef nonnull %3) #9
  %4 = getelementptr inbounds nuw i8, ptr %0, i64 24
  tail call void @av_freep(ptr noundef nonnull %4) #9
  %5 = getelementptr inbounds nuw i8, ptr %0, i64 32
  tail call void @av_freep(ptr noundef nonnull %5) #9
  ret void
}